target datalayout = "e-m:e-p270:32:32-p271:32:32-p272:64:64-i64:64-i128:128-f80:128-n8:16:32:64-S128"
target triple = "x86_64-pc-linux-gnu"

%struct.FunctionCallInfoBaseData = type { ptr, ptr, ptr, i32, i8, i16, [0 x %struct.NullableDatum] }
%struct.NullableDatum = type { i64, i8 }
%struct.anon = type { i32, [0 x i8] }
%struct.varattrib_1b = type { i8, [0 x i8] }
%struct.varattrib_1b_e = type { i8, i8, [0 x i8] }
%struct.nameData = type { [64 x i8] }

; Function Attrs: inlinehint nounwind uwtable
define internal i64 @PointerGetDatum(ptr noundef %0) #2 {
  %2 = alloca ptr, align 8
  store ptr %0, ptr %2, align 8
  %3 = load ptr, ptr %2, align 8
  %4 = ptrtoint ptr %3 to i64
  ret i64 %4
}

; Function Attrs: inlinehint nounwind uwtable
define internal i64 @CStringGetDatum(ptr noundef %0) #2 {
  %2 = alloca ptr, align 8
  store ptr %0, ptr %2, align 8
  %3 = load ptr, ptr %2, align 8
  %4 = call i64 @PointerGetDatum(ptr noundef %3)
  ret i64 %4
}

; Function Attrs: inlinehint nounwind uwtable
define internal i64 @NameGetDatum(ptr noundef %0) #2 {
  %2 = alloca ptr, align 8
  store ptr %0, ptr %2, align 8
  %3 = load ptr, ptr %2, align 8
  %4 = getelementptr inbounds nuw %struct.nameData, ptr %3, i32 0, i32 0
  %5 = getelementptr inbounds [64 x i8], ptr %4, i64 0, i64 0
  %6 = call i64 @CStringGetDatum(ptr noundef %5)
  ret i64 %6
}

; Function Attrs: inlinehint nounwind uwtable
define internal ptr @DatumGetPointer(i64 noundef %0) #2 {
  %2 = alloca i64, align 8
  store i64 %0, ptr %2, align 8
  %3 = load i64, ptr %2, align 8
  %4 = inttoptr i64 %3 to ptr
  ret ptr %4
}

; Function Attrs: nounwind uwtable
define dso_local i64 @bpchar_name(ptr noundef %0) #0 {
  %2 = alloca ptr, align 8
  %3 = alloca ptr, align 8
  %4 = alloca ptr, align 8
  %5 = alloca ptr, align 8
  %6 = alloca i32, align 4
  store ptr %0, ptr %2, align 8
  call void @llvm.lifetime.start.p0(i64 8, ptr %3) #8
  %7 = load ptr, ptr %2, align 8
  %8 = getelementptr inbounds nuw %struct.FunctionCallInfoBaseData, ptr %7, i32 0, i32 6
  %9 = getelementptr inbounds [0 x %struct.NullableDatum], ptr %8, i64 0, i64 0
  %10 = getelementptr inbounds nuw %struct.NullableDatum, ptr %9, i32 0, i32 0
  %11 = load i64, ptr %10, align 8
  %12 = call ptr @DatumGetPointer(i64 noundef %11)
  %13 = call ptr @pg_detoast_datum_packed(ptr noundef %12)
  store ptr %13, ptr %3, align 8
  call void @llvm.lifetime.start.p0(i64 8, ptr %4) #8
  call void @llvm.lifetime.start.p0(i64 8, ptr %5) #8
  call void @llvm.lifetime.start.p0(i64 4, ptr %6) #8
  %14 = load ptr, ptr %3, align 8
  %15 = getelementptr inbounds nuw %struct.varattrib_1b, ptr %14, i32 0, i32 0
  %16 = load i8, ptr %15, align 1
  %17 = zext i8 %16 to i32
  %18 = icmp eq i32 %17, 1
  br i1 %18, label %19, label %47

19:                                               ; preds = %1
  %20 = load ptr, ptr %3, align 8
  %21 = getelementptr inbounds nuw %struct.varattrib_1b_e, ptr %20, i32 0, i32 1
  %22 = load i8, ptr %21, align 1
  %23 = zext i8 %22 to i32
  %24 = icmp eq i32 %23, 1
  br i1 %24, label %25, label %26

25:                                               ; preds = %19
  br label %43

26:                                               ; preds = %19
  %27 = load ptr, ptr %3, align 8
  %28 = getelementptr inbounds nuw %struct.varattrib_1b_e, ptr %27, i32 0, i32 1
  %29 = load i8, ptr %28, align 1
  %30 = zext i8 %29 to i32
  %31 = and i32 %30, -2
  %32 = icmp eq i32 %31, 2
  br i1 %32, label %33, label %34

33:                                               ; preds = %26
  br label %41

34:                                               ; preds = %26
  %35 = load ptr, ptr %3, align 8
  %36 = getelementptr inbounds nuw %struct.varattrib_1b_e, ptr %35, i32 0, i32 1
  %37 = load i8, ptr %36, align 1
  %38 = zext i8 %37 to i32
  %39 = icmp eq i32 %38, 18
  %40 = select i1 %39, i64 16, i64 0
  br label %41

41:                                               ; preds = %34, %33
  %42 = phi i64 [ 8, %33 ], [ %40, %34 ]
  br label %43

43:                                               ; preds = %41, %25
  %44 = phi i64 [ 8, %25 ], [ %42, %41 ]
  %45 = add i64 2, %44
  %46 = sub i64 %45, 2
  br label %73

47:                                               ; preds = %1
  %48 = load ptr, ptr %3, align 8
  %49 = getelementptr inbounds nuw %struct.varattrib_1b, ptr %48, i32 0, i32 0
  %50 = load i8, ptr %49, align 1
  %51 = zext i8 %50 to i32
  %52 = and i32 %51, 1
  %53 = icmp eq i32 %52, 1
  br i1 %53, label %54, label %63

54:                                               ; preds = %47
  %55 = load ptr, ptr %3, align 8
  %56 = getelementptr inbounds nuw %struct.varattrib_1b, ptr %55, i32 0, i32 0
  %57 = load i8, ptr %56, align 1
  %58 = zext i8 %57 to i32
  %59 = ashr i32 %58, 1
  %60 = and i32 %59, 127
  %61 = sext i32 %60 to i64
  %62 = sub i64 %61, 1
  br label %71

63:                                               ; preds = %47
  %64 = load ptr, ptr %3, align 8
  %65 = getelementptr inbounds nuw %struct.anon, ptr %64, i32 0, i32 0
  %66 = load i32, ptr %65, align 4
  %67 = lshr i32 %66, 2
  %68 = and i32 %67, 1073741823
  %69 = sub i32 %68, 4
  %70 = zext i32 %69 to i64
  br label %71

71:                                               ; preds = %63, %54
  %72 = phi i64 [ %62, %54 ], [ %70, %63 ]
  br label %73

73:                                               ; preds = %71, %43
  %74 = phi i64 [ %46, %43 ], [ %72, %71 ]
  %75 = trunc i64 %74 to i32
  store i32 %75, ptr %6, align 4
  %76 = load ptr, ptr %3, align 8
  %77 = getelementptr inbounds nuw %struct.varattrib_1b, ptr %76, i32 0, i32 0
  %78 = load i8, ptr %77, align 1
  %79 = zext i8 %78 to i32
  %80 = and i32 %79, 1
  %81 = icmp eq i32 %80, 1
  br i1 %81, label %82, label %86

82:                                               ; preds = %73
  %83 = load ptr, ptr %3, align 8
  %84 = getelementptr inbounds nuw %struct.varattrib_1b, ptr %83, i32 0, i32 1
  %85 = getelementptr inbounds [0 x i8], ptr %84, i64 0, i64 0
  br label %90

86:                                               ; preds = %73
  %87 = load ptr, ptr %3, align 8
  %88 = getelementptr inbounds nuw %struct.anon, ptr %87, i32 0, i32 1
  %89 = getelementptr inbounds [0 x i8], ptr %88, i64 0, i64 0
  br label %90

90:                                               ; preds = %86, %82
  %91 = phi ptr [ %85, %82 ], [ %89, %86 ]
  store ptr %91, ptr %4, align 8
  %92 = load i32, ptr %6, align 4
  %93 = icmp sge i32 %92, 64
  br i1 %93, label %94, label %98

94:                                               ; preds = %90
  %95 = load ptr, ptr %4, align 8
  %96 = load i32, ptr %6, align 4
  %97 = call i32 @pg_mbcliplen(ptr noundef %95, i32 noundef %96, i32 noundef 63)
  store i32 %97, ptr %6, align 4
  br label %98

98:                                               ; preds = %94, %90
  br label %99

99:                                               ; preds = %112, %98
  %100 = load i32, ptr %6, align 4
  %101 = icmp sgt i32 %100, 0
  br i1 %101, label %102, label %115

102:                                              ; preds = %99
  %103 = load ptr, ptr %4, align 8
  %104 = load i32, ptr %6, align 4
  %105 = sub i32 %104, 1
  %106 = sext i32 %105 to i64
  %107 = getelementptr inbounds i8, ptr %103, i64 %106
  %108 = load i8, ptr %107, align 1
  %109 = sext i8 %108 to i32
  %110 = icmp ne i32 %109, 32
  br i1 %110, label %111, label %112

111:                                              ; preds = %102
  br label %115

112:                                              ; preds = %102
  %113 = load i32, ptr %6, align 4
  %114 = add i32 %113, -1
  store i32 %114, ptr %6, align 4
  br label %99, !llvm.loop !9

115:                                              ; preds = %111, %99
  %116 = call ptr @palloc0(i64 noundef 64)
  store ptr %116, ptr %5, align 8
  %117 = load ptr, ptr %5, align 8
  %118 = getelementptr inbounds nuw %struct.nameData, ptr %117, i32 0, i32 0
  %119 = getelementptr inbounds [64 x i8], ptr %118, i64 0, i64 0
  %120 = load ptr, ptr %4, align 8
  %121 = load i32, ptr %6, align 4
  %122 = sext i32 %121 to i64
  call void @llvm.memcpy.p0.p0.i64(ptr align 1 %119, ptr align 1 %120, i64 %122, i1 false)
  %123 = load ptr, ptr %5, align 8
  %124 = call i64 @NameGetDatum(ptr noundef %123)
  call void @llvm.lifetime.end.p0(i64 4, ptr %6) #8
  call void @llvm.lifetime.end.p0(i64 8, ptr %5) #8
  call void @llvm.lifetime.end.p0(i64 8, ptr %4) #8
  call void @llvm.lifetime.end.p0(i64 8, ptr %3) #8
  ret i64 %124
}