; Function Attrs: nounwind uwtable
define dso_local i64 @bpchar_name(ptr noundef readonly captures(none) %0) local_unnamed_addr #0 {
  %2 = getelementptr inbounds nuw i8, ptr %0, i64 32
  %3 = load i64, ptr %2, align 8
  %4 = inttoptr i64 %3 to ptr
  %5 = tail call ptr @pg_detoast_datum_packed(ptr noundef %4) #13
  %6 = load i8, ptr %5, align 1
  %7 = zext i8 %6 to i32
  %8 = icmp eq i8 %6, 1
  br i1 %8, label %.thread, label %13

.thread:                                          ; preds = %1
  %9 = getelementptr inbounds nuw i8, ptr %5, i64 1
  %10 = load i8, ptr %9, align 1
  %11 = icmp eq i8 %10, 18
  %12 = select i1 %11, i32 16, i32 0
  %.off = add i8 %10, -1
  %switch = icmp ult i8 %.off, 3
  br i1 %switch, label %.lr.ph.preheader, label %29

13:                                               ; preds = %1
  %14 = and i32 %7, 1
  %.not = icmp eq i32 %14, 0
  br i1 %.not, label %18, label %15

15:                                               ; preds = %13
  %16 = lshr i32 %7, 1
  %17 = add nsw i32 %16, -1
  br label %22

18:                                               ; preds = %13
  %19 = load i32, ptr %5, align 4
  %20 = lshr i32 %19, 2
  %21 = add nsw i32 %20, -4
  br label %22

22:                                               ; preds = %15, %18
  %23 = phi i32 [ %17, %15 ], [ %21, %18 ]
  %24 = and i8 %6, 1
  %.not25 = icmp eq i8 %24, 0
  %.v = select i1 %.not25, i64 4, i64 1
  %25 = getelementptr inbounds nuw i8, ptr %5, i64 %.v
  %26 = icmp sgt i32 %23, 63
  br i1 %26, label %27, label %29

27:                                               ; preds = %22
  %28 = tail call i32 @pg_mbcliplen(ptr noundef nonnull %25, i32 noundef %23, i32 noundef 63) #13
  br label %29

29:                                               ; preds = %.thread, %27, %22
  %30 = phi ptr [ %25, %27 ], [ %25, %22 ], [ %9, %.thread ]
  %.0 = phi i32 [ %28, %27 ], [ %23, %22 ], [ %12, %.thread ]
  %invariant.gep = getelementptr i8, ptr %30, i64 -1
  %31 = icmp sgt i32 %.0, 0
  br i1 %31, label %.lr.ph.preheader, label %._crit_edge

.lr.ph.preheader:                                 ; preds = %.thread, %29
  %invariant.gep37 = phi ptr [ %invariant.gep, %29 ], [ %5, %.thread ]
  %.036 = phi i32 [ %.0, %29 ], [ 8, %.thread ]
  %32 = phi ptr [ %30, %29 ], [ %9, %.thread ]
  br label %.lr.ph

.lr.ph:                                           ; preds = %.lr.ph.preheader, %35
  %.130 = phi i32 [ %36, %35 ], [ %.036, %.lr.ph.preheader ]
  %33 = zext nneg i32 %.130 to i64
  %gep = getelementptr i8, ptr %invariant.gep37, i64 %33
  %34 = load i8, ptr %gep, align 1
  %.not26 = icmp eq i8 %34, 32
  br i1 %.not26, label %35, label %._crit_edge

35:                                               ; preds = %.lr.ph
  %36 = add nsw i32 %.130, -1
  %37 = icmp sgt i32 %.130, 1
  br i1 %37, label %.lr.ph, label %._crit_edge, !llvm.loop !7

._crit_edge:                                      ; preds = %35, %.lr.ph, %29
  %38 = phi ptr [ %30, %29 ], [ %32, %.lr.ph ], [ %32, %35 ]
  %.1.lcssa = phi i32 [ %.0, %29 ], [ 0, %35 ], [ %.130, %.lr.ph ]
  %39 = tail call ptr @palloc0(i64 noundef 64) #13
  %40 = sext i32 %.1.lcssa to i64
  tail call void @llvm.memcpy.p0.p0.i64(ptr align 1 %39, ptr nonnull align 1 %38, i64 %40, i1 false)
  %41 = ptrtoint ptr %39 to i64
  ret i64 %41
}